target datalayout = "e-m:e-p270:32:32-p271:32:32-p272:64:64-i64:64-i128:128-f80:128-n8:16:32:64-S128"
target triple = "x86_64-pc-linux-gnu"

; Function Attrs: nounwind uwtable
define dso_local void @hllRawRegHisto(ptr noundef %0, ptr noundef %1) #0 {
  %3 = alloca ptr, align 8
  %4 = alloca ptr, align 8
  %5 = alloca ptr, align 8
  %6 = alloca ptr, align 8
  %7 = alloca i32, align 4
  store ptr %0, ptr %3, align 8, !tbaa !13
  store ptr %1, ptr %4, align 8, !tbaa !20
  call void @llvm.lifetime.start.p0(i64 8, ptr %5) #15
  %8 = load ptr, ptr %3, align 8, !tbaa !13
  store ptr %8, ptr %5, align 8, !tbaa !18
  call void @llvm.lifetime.start.p0(i64 8, ptr %6) #15
  call void @llvm.lifetime.start.p0(i64 4, ptr %7) #15
  store i32 0, ptr %7, align 4, !tbaa !9
  br label %9

9:                                                ; preds = %90, %2
  %10 = load i32, ptr %7, align 4, !tbaa !9
  %11 = icmp slt i32 %10, 2048
  br i1 %11, label %12, label %93

12:                                               ; preds = %9
  %13 = load ptr, ptr %5, align 8, !tbaa !18
  %14 = load i64, ptr %13, align 8, !tbaa !11
  %15 = icmp eq i64 %14, 0
  br i1 %15, label %16, label %21

16:                                               ; preds = %12
  %17 = load ptr, ptr %4, align 8, !tbaa !20
  %18 = getelementptr inbounds i32, ptr %17, i64 0
  %19 = load i32, ptr %18, align 4, !tbaa !9
  %20 = add nsw i32 %19, 8
  store i32 %20, ptr %18, align 4, !tbaa !9
  br label %87

21:                                               ; preds = %12
  %22 = load ptr, ptr %5, align 8, !tbaa !18
  store ptr %22, ptr %6, align 8, !tbaa !13
  %23 = load ptr, ptr %4, align 8, !tbaa !20
  %24 = load ptr, ptr %6, align 8, !tbaa !13
  %25 = getelementptr inbounds i8, ptr %24, i64 0
  %26 = load i8, ptr %25, align 1, !tbaa !17
  %27 = zext i8 %26 to i64
  %28 = getelementptr inbounds nuw i32, ptr %23, i64 %27
  %29 = load i32, ptr %28, align 4, !tbaa !9
  %30 = add nsw i32 %29, 1
  store i32 %30, ptr %28, align 4, !tbaa !9
  %31 = load ptr, ptr %4, align 8, !tbaa !20
  %32 = load ptr, ptr %6, align 8, !tbaa !13
  %33 = getelementptr inbounds i8, ptr %32, i64 1
  %34 = load i8, ptr %33, align 1, !tbaa !17
  %35 = zext i8 %34 to i64
  %36 = getelementptr inbounds nuw i32, ptr %31, i64 %35
  %37 = load i32, ptr %36, align 4, !tbaa !9
  %38 = add nsw i32 %37, 1
  store i32 %38, ptr %36, align 4, !tbaa !9
  %39 = load ptr, ptr %4, align 8, !tbaa !20
  %40 = load ptr, ptr %6, align 8, !tbaa !13
  %41 = getelementptr inbounds i8, ptr %40, i64 2
  %42 = load i8, ptr %41, align 1, !tbaa !17
  %43 = zext i8 %42 to i64
  %44 = getelementptr inbounds nuw i32, ptr %39, i64 %43
  %45 = load i32, ptr %44, align 4, !tbaa !9
  %46 = add nsw i32 %45, 1
  store i32 %46, ptr %44, align 4, !tbaa !9
  %47 = load ptr, ptr %4, align 8, !tbaa !20
  %48 = load ptr, ptr %6, align 8, !tbaa !13
  %49 = getelementptr inbounds i8, ptr %48, i64 3
  %50 = load i8, ptr %49, align 1, !tbaa !17
  %51 = zext i8 %50 to i64
  %52 = getelementptr inbounds nuw i32, ptr %47, i64 %51
  %53 = load i32, ptr %52, align 4, !tbaa !9
  %54 = add nsw i32 %53, 1
  store i32 %54, ptr %52, align 4, !tbaa !9
  %55 = load ptr, ptr %4, align 8, !tbaa !20
  %56 = load ptr, ptr %6, align 8, !tbaa !13
  %57 = getelementptr inbounds i8, ptr %56, i64 4
  %58 = load i8, ptr %57, align 1, !tbaa !17
  %59 = zext i8 %58 to i64
  %60 = getelementptr inbounds nuw i32, ptr %55, i64 %59
  %61 = load i32, ptr %60, align 4, !tbaa !9
  %62 = add nsw i32 %61, 1
  store i32 %62, ptr %60, align 4, !tbaa !9
  %63 = load ptr, ptr %4, align 8, !tbaa !20
  %64 = load ptr, ptr %6, align 8, !tbaa !13
  %65 = getelementptr inbounds i8, ptr %64, i64 5
  %66 = load i8, ptr %65, align 1, !tbaa !17
  %67 = zext i8 %66 to i64
  %68 = getelementptr inbounds nuw i32, ptr %63, i64 %67
  %69 = load i32, ptr %68, align 4, !tbaa !9
  %70 = add nsw i32 %69, 1
  store i32 %70, ptr %68, align 4, !tbaa !9
  %71 = load ptr, ptr %4, align 8, !tbaa !20
  %72 = load ptr, ptr %6, align 8, !tbaa !13
  %73 = getelementptr inbounds i8, ptr %72, i64 6
  %74 = load i8, ptr %73, align 1, !tbaa !17
  %75 = zext i8 %74 to i64
  %76 = getelementptr inbounds nuw i32, ptr %71, i64 %75
  %77 = load i32, ptr %76, align 4, !tbaa !9
  %78 = add nsw i32 %77, 1
  store i32 %78, ptr %76, align 4, !tbaa !9
  %79 = load ptr, ptr %4, align 8, !tbaa !20
  %80 = load ptr, ptr %6, align 8, !tbaa !13
  %81 = getelementptr inbounds i8, ptr %80, i64 7
  %82 = load i8, ptr %81, align 1, !tbaa !17
  %83 = zext i8 %82 to i64
  %84 = getelementptr inbounds nuw i32, ptr %79, i64 %83
  %85 = load i32, ptr %84, align 4, !tbaa !9
  %86 = add nsw i32 %85, 1
  store i32 %86, ptr %84, align 4, !tbaa !9
  br label %87

87:                                               ; preds = %21, %16
  %88 = load ptr, ptr %5, align 8, !tbaa !18
  %89 = getelementptr inbounds nuw i64, ptr %88, i32 1
  store ptr %89, ptr %5, align 8, !tbaa !18
  br label %90

90:                                               ; preds = %87
  %91 = load i32, ptr %7, align 4, !tbaa !9
  %92 = add nsw i32 %91, 1
  store i32 %92, ptr %7, align 4, !tbaa !9
  br label %9, !llvm.loop !71

93:                                               ; preds = %9
  call void @llvm.lifetime.end.p0(i64 4, ptr %7) #15
  call void @llvm.lifetime.end.p0(i64 8, ptr %6) #15
  call void @llvm.lifetime.end.p0(i64 8, ptr %5) #15
  ret void
}